target datalayout = "e-m:e-p270:32:32-p271:32:32-p272:64:64-i64:64-i128:128-f80:128-n8:16:32:64-S128"
target triple = "x86_64-pc-linux-gnu"

@bio_err = external global ptr, align 8
@.str.202 = private unnamed_addr constant [21 x i8] c"../openssl/apps/ca.c\00", align 1
@.str.231 = private unnamed_addr constant [27 x i8] c"memory allocation failure\0A\00", align 1
@.str.232 = private unnamed_addr constant [28 x i8] c"invalid revocation date %s\0A\00", align 1
@crl_reasons = internal global [11 x ptr] [ptr @.str.341, ptr @.str.342, ptr @.str.343, ptr @.str.344, ptr @.str.345, ptr @.str.346, ptr @.str.347, ptr @.str.348, ptr @.str.329, ptr @.str.331, ptr @.str.332], align 16
@.str.233 = private unnamed_addr constant [24 x i8] c"invalid reason code %s\0A\00", align 1
@.str.234 = private unnamed_addr constant [26 x i8] c"missing hold instruction\0A\00", align 1
@.str.235 = private unnamed_addr constant [30 x i8] c"invalid object identifier %s\0A\00", align 1
@.str.236 = private unnamed_addr constant [26 x i8] c"missing compromised time\0A\00", align 1
@.str.237 = private unnamed_addr constant [29 x i8] c"invalid compromised time %s\0A\00", align 1

; Function Attrs: nounwind uwtable
define dso_local i32 @unpack_revinfo(ptr noundef %0, ptr noundef %1, ptr noundef %2, ptr noundef %3, ptr noundef %4) #0 {
  %6 = alloca ptr, align 8
  %7 = alloca ptr, align 8
  %8 = alloca ptr, align 8
  %9 = alloca ptr, align 8
  %10 = alloca ptr, align 8
  %11 = alloca ptr, align 8
  %12 = alloca ptr, align 8
  %13 = alloca ptr, align 8
  %14 = alloca ptr, align 8
  %15 = alloca ptr, align 8
  %16 = alloca i32, align 4
  %17 = alloca i32, align 4
  %18 = alloca i32, align 4
  %19 = alloca ptr, align 8
  %20 = alloca ptr, align 8
  store ptr %0, ptr %6, align 8, !tbaa !100
  store ptr %1, ptr %7, align 8, !tbaa !102
  store ptr %2, ptr %8, align 8, !tbaa !104
  store ptr %3, ptr %9, align 8, !tbaa !100
  store ptr %4, ptr %10, align 8, !tbaa !31
  call void @llvm.lifetime.start.p0(i64 8, ptr %11) #10
  call void @llvm.lifetime.start.p0(i64 8, ptr %12) #10
  call void @llvm.lifetime.start.p0(i64 8, ptr %13) #10
  store ptr null, ptr %13, align 8, !tbaa !31
  call void @llvm.lifetime.start.p0(i64 8, ptr %14) #10
  store ptr null, ptr %14, align 8, !tbaa !31
  call void @llvm.lifetime.start.p0(i64 8, ptr %15) #10
  call void @llvm.lifetime.start.p0(i64 4, ptr %16) #10
  store i32 -1, ptr %16, align 4, !tbaa !4
  call void @llvm.lifetime.start.p0(i64 4, ptr %17) #10
  store i32 0, ptr %17, align 4, !tbaa !4
  call void @llvm.lifetime.start.p0(i64 4, ptr %18) #10
  call void @llvm.lifetime.start.p0(i64 8, ptr %19) #10
  store ptr null, ptr %19, align 8, !tbaa !70
  call void @llvm.lifetime.start.p0(i64 8, ptr %20) #10
  store ptr null, ptr %20, align 8, !tbaa !62
  %21 = load ptr, ptr %10, align 8, !tbaa !31
  %22 = call noalias ptr @CRYPTO_strdup(ptr noundef %21, ptr noundef @.str.202, i32 noundef 2541)
  store ptr %22, ptr %11, align 8, !tbaa !31
  %23 = load ptr, ptr %11, align 8, !tbaa !31
  %24 = icmp ne ptr %23, null
  br i1 %24, label %28, label %25

25:                                               ; preds = %5
  %26 = load ptr, ptr @bio_err, align 8, !tbaa !19
  %27 = call i32 (ptr, ptr, ...) @BIO_printf(ptr noundef %26, ptr noundef @.str.231)
  br label %181

28:                                               ; preds = %5
  %29 = load ptr, ptr %11, align 8, !tbaa !31
  %30 = call ptr @strchr(ptr noundef %29, i32 noundef 44) #11
  store ptr %30, ptr %15, align 8, !tbaa !31
  %31 = load ptr, ptr %11, align 8, !tbaa !31
  store ptr %31, ptr %12, align 8, !tbaa !31
  %32 = load ptr, ptr %15, align 8, !tbaa !31
  %33 = icmp ne ptr %32, null
  br i1 %33, label %34, label %48

34:                                               ; preds = %28
  %35 = load ptr, ptr %15, align 8, !tbaa !31
  store i8 0, ptr %35, align 1, !tbaa !43
  %36 = load ptr, ptr %15, align 8, !tbaa !31
  %37 = getelementptr inbounds nuw i8, ptr %36, i32 1
  store ptr %37, ptr %15, align 8, !tbaa !31
  %38 = load ptr, ptr %15, align 8, !tbaa !31
  store ptr %38, ptr %13, align 8, !tbaa !31
  %39 = load ptr, ptr %15, align 8, !tbaa !31
  %40 = call ptr @strchr(ptr noundef %39, i32 noundef 44) #11
  store ptr %40, ptr %15, align 8, !tbaa !31
  %41 = load ptr, ptr %15, align 8, !tbaa !31
  %42 = icmp ne ptr %41, null
  br i1 %42, label %43, label %47

43:                                               ; preds = %34
  %44 = load ptr, ptr %15, align 8, !tbaa !31
  store i8 0, ptr %44, align 1, !tbaa !43
  %45 = load ptr, ptr %15, align 8, !tbaa !31
  %46 = getelementptr inbounds i8, ptr %45, i64 1
  store ptr %46, ptr %14, align 8, !tbaa !31
  br label %47

47:                                               ; preds = %43, %34
  br label %48

48:                                               ; preds = %47, %28
  %49 = load ptr, ptr %6, align 8, !tbaa !100
  %50 = icmp ne ptr %49, null
  br i1 %50, label %51, label %71

51:                                               ; preds = %48
  %52 = call ptr @ASN1_UTCTIME_new()
  %53 = load ptr, ptr %6, align 8, !tbaa !100
  store ptr %52, ptr %53, align 8, !tbaa !62
  %54 = load ptr, ptr %6, align 8, !tbaa !100
  %55 = load ptr, ptr %54, align 8, !tbaa !62
  %56 = icmp eq ptr %55, null
  br i1 %56, label %57, label %60

57:                                               ; preds = %51
  %58 = load ptr, ptr @bio_err, align 8, !tbaa !19
  %59 = call i32 (ptr, ptr, ...) @BIO_printf(ptr noundef %58, ptr noundef @.str.231)
  br label %181

60:                                               ; preds = %51
  %61 = load ptr, ptr %6, align 8, !tbaa !100
  %62 = load ptr, ptr %61, align 8, !tbaa !62
  %63 = load ptr, ptr %12, align 8, !tbaa !31
  %64 = call i32 @ASN1_UTCTIME_set_string(ptr noundef %62, ptr noundef %63)
  %65 = icmp ne i32 %64, 0
  br i1 %65, label %70, label %66

66:                                               ; preds = %60
  %67 = load ptr, ptr @bio_err, align 8, !tbaa !19
  %68 = load ptr, ptr %12, align 8, !tbaa !31
  %69 = call i32 (ptr, ptr, ...) @BIO_printf(ptr noundef %67, ptr noundef @.str.232, ptr noundef %68)
  br label %181

70:                                               ; preds = %60
  br label %71

71:                                               ; preds = %70, %48
  %72 = load ptr, ptr %13, align 8, !tbaa !31
  %73 = icmp ne ptr %72, null
  br i1 %73, label %74, label %168

74:                                               ; preds = %71
  store i32 0, ptr %18, align 4, !tbaa !4
  br label %75

75:                                               ; preds = %90, %74
  %76 = load i32, ptr %18, align 4, !tbaa !4
  %77 = zext i32 %76 to i64
  %78 = icmp ult i64 %77, 11
  br i1 %78, label %79, label %93

79:                                               ; preds = %75
  %80 = load ptr, ptr %13, align 8, !tbaa !31
  %81 = load i32, ptr %18, align 4, !tbaa !4
  %82 = zext i32 %81 to i64
  %83 = getelementptr inbounds nuw [11 x ptr], ptr @crl_reasons, i64 0, i64 %82
  %84 = load ptr, ptr %83, align 8, !tbaa !31
  %85 = call i32 @OPENSSL_strcasecmp(ptr noundef %80, ptr noundef %84)
  %86 = icmp eq i32 %85, 0
  br i1 %86, label %87, label %89

87:                                               ; preds = %79
  %88 = load i32, ptr %18, align 4, !tbaa !4
  store i32 %88, ptr %16, align 4, !tbaa !4
  br label %93

89:                                               ; preds = %79
  br label %90

90:                                               ; preds = %89
  %91 = load i32, ptr %18, align 4, !tbaa !4
  %92 = add i32 %91, 1
  store i32 %92, ptr %18, align 4, !tbaa !4
  br label %75, !llvm.loop !106

93:                                               ; preds = %87, %75
  %94 = load i32, ptr %16, align 4, !tbaa !4
  %95 = icmp eq i32 %94, -1
  br i1 %95, label %96, label %100

96:                                               ; preds = %93
  %97 = load ptr, ptr @bio_err, align 8, !tbaa !19
  %98 = load ptr, ptr %13, align 8, !tbaa !31
  %99 = call i32 (ptr, ptr, ...) @BIO_printf(ptr noundef %97, ptr noundef @.str.233, ptr noundef %98)
  br label %181

100:                                              ; preds = %93
  %101 = load i32, ptr %16, align 4, !tbaa !4
  %102 = icmp eq i32 %101, 7
  br i1 %102, label %103, label %104

103:                                              ; preds = %100
  store i32 8, ptr %16, align 4, !tbaa !4
  br label %167

104:                                              ; preds = %100
  %105 = load i32, ptr %16, align 4, !tbaa !4
  %106 = icmp eq i32 %105, 8
  br i1 %106, label %107, label %131

107:                                              ; preds = %104
  %108 = load ptr, ptr %14, align 8, !tbaa !31
  %109 = icmp ne ptr %108, null
  br i1 %109, label %113, label %110

110:                                              ; preds = %107
  %111 = load ptr, ptr @bio_err, align 8, !tbaa !19
  %112 = call i32 (ptr, ptr, ...) @BIO_printf(ptr noundef %111, ptr noundef @.str.234)
  br label %181

113:                                              ; preds = %107
  store i32 6, ptr %16, align 4, !tbaa !4
  %114 = load ptr, ptr %14, align 8, !tbaa !31
  %115 = call ptr @OBJ_txt2obj(ptr noundef %114, i32 noundef 0)
  store ptr %115, ptr %19, align 8, !tbaa !70
  %116 = load ptr, ptr %19, align 8, !tbaa !70
  %117 = icmp ne ptr %116, null
  br i1 %117, label %122, label %118

118:                                              ; preds = %113
  %119 = load ptr, ptr @bio_err, align 8, !tbaa !19
  %120 = load ptr, ptr %14, align 8, !tbaa !31
  %121 = call i32 (ptr, ptr, ...) @BIO_printf(ptr noundef %119, ptr noundef @.str.235, ptr noundef %120)
  br label %181

122:                                              ; preds = %113
  %123 = load ptr, ptr %8, align 8, !tbaa !104
  %124 = icmp ne ptr %123, null
  br i1 %124, label %125, label %128

125:                                              ; preds = %122
  %126 = load ptr, ptr %19, align 8, !tbaa !70
  %127 = load ptr, ptr %8, align 8, !tbaa !104
  store ptr %126, ptr %127, align 8, !tbaa !70
  br label %130

128:                                              ; preds = %122
  %129 = load ptr, ptr %19, align 8, !tbaa !70
  call void @ASN1_OBJECT_free(ptr noundef %129)
  br label %130

130:                                              ; preds = %128, %125
  br label %166

131:                                              ; preds = %104
  %132 = load i32, ptr %16, align 4, !tbaa !4
  %133 = icmp eq i32 %132, 9
  br i1 %133, label %137, label %134

134:                                              ; preds = %131
  %135 = load i32, ptr %16, align 4, !tbaa !4
  %136 = icmp eq i32 %135, 10
  br i1 %136, label %137, label %165

137:                                              ; preds = %134, %131
  %138 = load ptr, ptr %14, align 8, !tbaa !31
  %139 = icmp ne ptr %138, null
  br i1 %139, label %143, label %140

140:                                              ; preds = %137
  %141 = load ptr, ptr @bio_err, align 8, !tbaa !19
  %142 = call i32 (ptr, ptr, ...) @BIO_printf(ptr noundef %141, ptr noundef @.str.236)
  br label %181

143:                                              ; preds = %137
  %144 = call ptr @ASN1_GENERALIZEDTIME_new()
  store ptr %144, ptr %20, align 8, !tbaa !62
  %145 = load ptr, ptr %20, align 8, !tbaa !62
  %146 = icmp eq ptr %145, null
  br i1 %146, label %147, label %150

147:                                              ; preds = %143
  %148 = load ptr, ptr @bio_err, align 8, !tbaa !19
  %149 = call i32 (ptr, ptr, ...) @BIO_printf(ptr noundef %148, ptr noundef @.str.231)
  br label %181

150:                                              ; preds = %143
  %151 = load ptr, ptr %20, align 8, !tbaa !62
  %152 = load ptr, ptr %14, align 8, !tbaa !31
  %153 = call i32 @ASN1_GENERALIZEDTIME_set_string(ptr noundef %151, ptr noundef %152)
  %154 = icmp ne i32 %153, 0
  br i1 %154, label %159, label %155

155:                                              ; preds = %150
  %156 = load ptr, ptr @bio_err, align 8, !tbaa !19
  %157 = load ptr, ptr %14, align 8, !tbaa !31
  %158 = call i32 (ptr, ptr, ...) @BIO_printf(ptr noundef %156, ptr noundef @.str.237, ptr noundef %157)
  br label %181

159:                                              ; preds = %150
  %160 = load i32, ptr %16, align 4, !tbaa !4
  %161 = icmp eq i32 %160, 9
  br i1 %161, label %162, label %163

162:                                              ; preds = %159
  store i32 1, ptr %16, align 4, !tbaa !4
  br label %164

163:                                              ; preds = %159
  store i32 2, ptr %16, align 4, !tbaa !4
  br label %164

164:                                              ; preds = %163, %162
  br label %165

165:                                              ; preds = %164, %134
  br label %166

166:                                              ; preds = %165, %130
  br label %167

167:                                              ; preds = %166, %103
  br label %168

168:                                              ; preds = %167, %71
  %169 = load ptr, ptr %7, align 8, !tbaa !102
  %170 = icmp ne ptr %169, null
  br i1 %170, label %171, label %174

171:                                              ; preds = %168
  %172 = load i32, ptr %16, align 4, !tbaa !4
  %173 = load ptr, ptr %7, align 8, !tbaa !102
  store i32 %172, ptr %173, align 4, !tbaa !4
  br label %174

174:                                              ; preds = %171, %168
  %175 = load ptr, ptr %9, align 8, !tbaa !100
  %176 = icmp ne ptr %175, null
  br i1 %176, label %177, label %180

177:                                              ; preds = %174
  %178 = load ptr, ptr %20, align 8, !tbaa !62
  %179 = load ptr, ptr %9, align 8, !tbaa !100
  store ptr %178, ptr %179, align 8, !tbaa !62
  store ptr null, ptr %20, align 8, !tbaa !62
  br label %180

180:                                              ; preds = %177, %174
  store i32 1, ptr %17, align 4, !tbaa !4
  br label %181

181:                                              ; preds = %180, %155, %147, %140, %118, %110, %96, %66, %57, %25
  %182 = load ptr, ptr %11, align 8, !tbaa !31
  call void @CRYPTO_free(ptr noundef %182, ptr noundef @.str.202, i32 noundef 2635)
  %183 = load ptr, ptr %20, align 8, !tbaa !62
  call void @ASN1_GENERALIZEDTIME_free(ptr noundef %183)
  %184 = load i32, ptr %17, align 4, !tbaa !4
  call void @llvm.lifetime.end.p0(i64 8, ptr %20) #10
  call void @llvm.lifetime.end.p0(i64 8, ptr %19) #10
  call void @llvm.lifetime.end.p0(i64 4, ptr %18) #10
  call void @llvm.lifetime.end.p0(i64 4, ptr %17) #10
  call void @llvm.lifetime.end.p0(i64 4, ptr %16) #10
  call void @llvm.lifetime.end.p0(i64 8, ptr %15) #10
  call void @llvm.lifetime.end.p0(i64 8, ptr %14) #10
  call void @llvm.lifetime.end.p0(i64 8, ptr %13) #10
  call void @llvm.lifetime.end.p0(i64 8, ptr %12) #10
  call void @llvm.lifetime.end.p0(i64 8, ptr %11) #10
  ret i32 %184
}