; Function Attrs: nounwind uwtable
define dso_local range(i32 0, 2) i32 @unpack_revinfo(ptr noundef writeonly captures(address_is_null) %0, ptr noundef writeonly captures(address_is_null) %1, ptr noundef writeonly captures(address_is_null) %2, ptr noundef writeonly captures(address_is_null) %3, ptr noundef %4) local_unnamed_addr #0 {
  %6 = tail call noalias ptr @CRYPTO_strdup(ptr noundef %4, ptr noundef nonnull @.str.202, i32 noundef 2541) #12
  %.not = icmp eq ptr %6, null
  br i1 %.not, label %7, label %10

7:                                                ; preds = %5
  %8 = load ptr, ptr @bio_err, align 8, !tbaa !19
  %9 = tail call i32 (ptr, ptr, ...) @BIO_printf(ptr noundef %8, ptr noundef nonnull @.str.231) #12
  br label %74

10:                                               ; preds = %5
  %11 = tail call ptr @strchr(ptr noundef nonnull dereferenceable(1) %6, i32 noundef 44) #13
  %.not71 = icmp eq ptr %11, null
  br i1 %.not71, label %17, label %12

12:                                               ; preds = %10
  store i8 0, ptr %11, align 1, !tbaa !23
  %13 = getelementptr inbounds nuw i8, ptr %11, i64 1
  %14 = tail call ptr @strchr(ptr noundef nonnull dereferenceable(1) %13, i32 noundef 44) #13
  %.not72 = icmp eq ptr %14, null
  br i1 %.not72, label %17, label %15

15:                                               ; preds = %12
  store i8 0, ptr %14, align 1, !tbaa !23
  %16 = getelementptr inbounds nuw i8, ptr %14, i64 1
  br label %17

17:                                               ; preds = %12, %15, %10
  %.058 = phi ptr [ %13, %15 ], [ %13, %12 ], [ null, %10 ]
  %.057 = phi ptr [ %16, %15 ], [ null, %12 ], [ null, %10 ]
  %.not73 = icmp eq ptr %0, null
  br i1 %.not73, label %29, label %18

18:                                               ; preds = %17
  %19 = tail call ptr @ASN1_UTCTIME_new() #12
  store ptr %19, ptr %0, align 8, !tbaa !51
  %20 = icmp eq ptr %19, null
  br i1 %20, label %21, label %24

21:                                               ; preds = %18
  %22 = load ptr, ptr @bio_err, align 8, !tbaa !19
  %23 = tail call i32 (ptr, ptr, ...) @BIO_printf(ptr noundef %22, ptr noundef nonnull @.str.231) #12
  br label %74

24:                                               ; preds = %18
  %25 = tail call i32 @ASN1_UTCTIME_set_string(ptr noundef nonnull %19, ptr noundef nonnull %6) #12
  %.not74 = icmp eq i32 %25, 0
  br i1 %.not74, label %26, label %29

26:                                               ; preds = %24
  %27 = load ptr, ptr @bio_err, align 8, !tbaa !19
  %28 = tail call i32 (ptr, ptr, ...) @BIO_printf(ptr noundef %27, ptr noundef nonnull @.str.232, ptr noundef nonnull %6) #12
  br label %74

29:                                               ; preds = %24, %17
  %.not75 = icmp eq ptr %.058, null
  br i1 %.not75, label %70, label %.preheader

.preheader:                                       ; preds = %29, %34
  %indvars.iv = phi i64 [ %indvars.iv.next, %34 ], [ 0, %29 ]
  %30 = getelementptr inbounds nuw [11 x ptr], ptr @crl_reasons, i64 0, i64 %indvars.iv
  %31 = load ptr, ptr %30, align 8, !tbaa !9
  %32 = tail call i32 @OPENSSL_strcasecmp(ptr noundef nonnull %.058, ptr noundef %31) #12
  %33 = icmp eq i32 %32, 0
  br i1 %33, label %35, label %34

34:                                               ; preds = %.preheader
  %indvars.iv.next = add nuw nsw i64 %indvars.iv, 1
  %exitcond.not = icmp eq i64 %indvars.iv.next, 11
  br i1 %exitcond.not, label %.thread, label %.preheader, !llvm.loop !65

35:                                               ; preds = %.preheader
  %36 = trunc nuw nsw i64 %indvars.iv to i32
  switch i32 %36, label %51 [
    i32 8, label %39
    i32 7, label %70
  ]

.thread:                                          ; preds = %34
  %37 = load ptr, ptr @bio_err, align 8, !tbaa !19
  %38 = tail call i32 (ptr, ptr, ...) @BIO_printf(ptr noundef %37, ptr noundef nonnull @.str.233, ptr noundef nonnull %.058) #12
  br label %74

39:                                               ; preds = %35
  %.not78 = icmp eq ptr %.057, null
  br i1 %.not78, label %40, label %43

40:                                               ; preds = %39
  %41 = load ptr, ptr @bio_err, align 8, !tbaa !19
  %42 = tail call i32 (ptr, ptr, ...) @BIO_printf(ptr noundef %41, ptr noundef nonnull @.str.234) #12
  br label %74

43:                                               ; preds = %39
  %44 = tail call ptr @OBJ_txt2obj(ptr noundef nonnull %.057, i32 noundef 0) #12
  %.not79 = icmp eq ptr %44, null
  br i1 %.not79, label %45, label %48

45:                                               ; preds = %43
  %46 = load ptr, ptr @bio_err, align 8, !tbaa !19
  %47 = tail call i32 (ptr, ptr, ...) @BIO_printf(ptr noundef %46, ptr noundef nonnull @.str.235, ptr noundef nonnull %.057) #12
  br label %74

48:                                               ; preds = %43
  %.not80 = icmp eq ptr %2, null
  br i1 %.not80, label %50, label %49

49:                                               ; preds = %48
  store ptr %44, ptr %2, align 8, !tbaa !49
  br label %70

50:                                               ; preds = %48
  tail call void @ASN1_OBJECT_free(ptr noundef nonnull %44) #12
  br label %70

51:                                               ; preds = %35
  %52 = icmp eq i64 %indvars.iv, 9
  %53 = add nsw i32 %36, -9
  %or.cond = icmp ult i32 %53, 2
  br i1 %or.cond, label %54, label %70

54:                                               ; preds = %51
  %.not76 = icmp eq ptr %.057, null
  br i1 %.not76, label %55, label %58

55:                                               ; preds = %54
  %56 = load ptr, ptr @bio_err, align 8, !tbaa !19
  %57 = tail call i32 (ptr, ptr, ...) @BIO_printf(ptr noundef %56, ptr noundef nonnull @.str.236) #12
  br label %74

58:                                               ; preds = %54
  %59 = tail call ptr @ASN1_GENERALIZEDTIME_new() #12
  %60 = icmp eq ptr %59, null
  br i1 %60, label %61, label %64

61:                                               ; preds = %58
  %62 = load ptr, ptr @bio_err, align 8, !tbaa !19
  %63 = tail call i32 (ptr, ptr, ...) @BIO_printf(ptr noundef %62, ptr noundef nonnull @.str.231) #12
  br label %74

64:                                               ; preds = %58
  %65 = tail call i32 @ASN1_GENERALIZEDTIME_set_string(ptr noundef nonnull %59, ptr noundef nonnull %.057) #12
  %.not77 = icmp eq i32 %65, 0
  br i1 %.not77, label %66, label %69

66:                                               ; preds = %64
  %67 = load ptr, ptr @bio_err, align 8, !tbaa !19
  %68 = tail call i32 (ptr, ptr, ...) @BIO_printf(ptr noundef %67, ptr noundef nonnull @.str.237, ptr noundef nonnull %.057) #12
  br label %74

69:                                               ; preds = %64
  %. = select i1 %52, i32 1, i32 2
  br label %70

70:                                               ; preds = %69, %35, %51, %49, %50, %29
  %.055 = phi i32 [ 6, %49 ], [ 6, %50 ], [ %36, %51 ], [ -1, %29 ], [ 8, %35 ], [ %., %69 ]
  %.1 = phi ptr [ null, %49 ], [ null, %50 ], [ null, %51 ], [ null, %29 ], [ null, %35 ], [ %59, %69 ]
  %.not81 = icmp eq ptr %1, null
  br i1 %.not81, label %72, label %71

71:                                               ; preds = %70
  store i32 %.055, ptr %1, align 4, !tbaa !11
  br label %72

72:                                               ; preds = %71, %70
  %.not82 = icmp eq ptr %3, null
  br i1 %.not82, label %74, label %73

73:                                               ; preds = %72
  store ptr %.1, ptr %3, align 8, !tbaa !51
  br label %74

74:                                               ; preds = %72, %73, %66, %61, %55, %45, %40, %.thread, %26, %21, %7
  %.054 = phi i32 [ 0, %21 ], [ 0, %.thread ], [ 0, %45 ], [ 0, %40 ], [ 0, %61 ], [ 0, %66 ], [ 0, %55 ], [ 0, %26 ], [ 0, %7 ], [ 1, %73 ], [ 1, %72 ]
  %.0 = phi ptr [ null, %21 ], [ null, %.thread ], [ null, %45 ], [ null, %40 ], [ null, %61 ], [ %59, %66 ], [ null, %55 ], [ null, %26 ], [ null, %7 ], [ null, %73 ], [ %.1, %72 ]
  tail call void @CRYPTO_free(ptr noundef %6, ptr noundef nonnull @.str.202, i32 noundef 2635) #12
  tail call void @ASN1_GENERALIZEDTIME_free(ptr noundef %.0) #12
  ret i32 %.054
}